(dp1
S'NORTH'
p2
(S'kjfk'
p3
S'NYC'
p4
g4
tp5
sS'MILLWD'
p6
(S'krme'
p7
S'Mohawk Valley'
p8
S'Utica'
p9
tp10
sS'GENESE'
p11
(S'kroc'
p12
S'Genese'
p13
S'Rochester'
p14
tp15
sS'MHK VL'
p16
(g3
S'Long Island'
p17
g4
tp18
sS'HUD VL'
p19
(S'kpou'
p20
S'Hudson Valley'
p21
S'Poughkeepsie'
p22
tp23
sS'CENTRL'
p24
(S'ksyr'
p25
S'Central'
p26
S'Syracuse'
p27
tp28
sS'LONGIL'
p29
(S'kbuf'
p30
S'West'
p31
S'Buffalo'
p32
tp33
sS'N.Y.C._LONGIL'
p34
(S'klga'
p35
S'Millwood'
p36
S'Yonkers'
p37
tp38
sS'WEST'
p39
(S'kpbg'
p40
S'North'
p41
S'Plattsburgh'
p42
tp43
sS'DUNWOD'
p44
(g35
S'Dunwoodie'
p45
g37
tp46
sS'CAPITL'
p47
(S'kalb'
p48
S'Capital'
p49
S'Albany'
p50
tp51
s.